target datalayout = "e-m:e-p270:32:32-p271:32:32-p272:64:64-i64:64-i128:128-f80:128-n8:16:32:64-S128"
target triple = "x86_64-pc-linux-gnu"

%struct.AVChannelLayout = type { i32, i32, %union.anon.1, ptr }
%union.anon.1 = type { i64 }
%struct.ReplayGainFreqInfo = type { i32, [11 x double], [11 x double], [3 x double], [3 x double] }
%struct.AVFilterLink = type { ptr, ptr, ptr, ptr, i32, i32, i32, i32, %struct.AVRational, i32, i32, i32, %struct.AVChannelLayout, %struct.AVRational, ptr, i32, %struct.AVFilterFormatsConfig, %struct.AVFilterFormatsConfig }
%struct.AVRational = type { i32, i32 }
%struct.AVFilterFormatsConfig = type { ptr, ptr, ptr, ptr, ptr }
%struct.AVFilterContext = type { ptr, ptr, ptr, ptr, ptr, i32, ptr, ptr, i32, ptr, ptr, i32, i32, ptr, ptr, ptr, ptr, i32, ptr, i32, i32 }
%struct.ReplayGainContext = type { ptr, [12000 x i32], float, float, i32, i32, ptr, ptr, ptr, ptr, [256 x float], [256 x float], [256 x float], [256 x float] }
%struct.FilterLink = type { %struct.AVFilterLink, ptr, i64, i64, i32, i32, i64, i64, i64, i64, %struct.AVRational, ptr }

@.str.3 = private unnamed_addr constant [30 x i8] c"Assertion %s failed at %s:%d\0A\00", align 1
@.str.4 = private unnamed_addr constant [49 x i8] c"i < (sizeof(freqinfos) / sizeof((freqinfos)[0]))\00", align 1
@.str.5 = private unnamed_addr constant [28 x i8] c"libavfilter/af_replaygain.c\00", align 1

; Function Attrs: inlinehint nounwind uwtable
define internal ptr @ff_filter_link(ptr noundef %0) #7 {
  %2 = alloca ptr, align 8
  store ptr %0, ptr %2, align 8, !tbaa !20
  %3 = load ptr, ptr %2, align 8, !tbaa !20
  ret ptr %3
}

; Function Attrs: nounwind uwtable
define internal i32 @config_input(ptr noundef %0) #0 {
  %2 = alloca ptr, align 8
  %3 = alloca ptr, align 8
  %4 = alloca ptr, align 8
  %5 = alloca ptr, align 8
  %6 = alloca i32, align 4
  store ptr %0, ptr %2, align 8, !tbaa !20
  call void @llvm.lifetime.start.p0(i64 8, ptr %3) #9
  %7 = load ptr, ptr %2, align 8, !tbaa !20
  %8 = call ptr @ff_filter_link(ptr noundef %7)
  store ptr %8, ptr %3, align 8, !tbaa !53
  call void @llvm.lifetime.start.p0(i64 8, ptr %4) #9
  %9 = load ptr, ptr %2, align 8, !tbaa !20
  %10 = getelementptr inbounds nuw %struct.AVFilterLink, ptr %9, i32 0, i32 2
  %11 = load ptr, ptr %10, align 8, !tbaa !24
  store ptr %11, ptr %4, align 8, !tbaa !4
  call void @llvm.lifetime.start.p0(i64 8, ptr %5) #9
  %12 = load ptr, ptr %4, align 8, !tbaa !4
  %13 = getelementptr inbounds nuw %struct.AVFilterContext, ptr %12, i32 0, i32 9
  %14 = load ptr, ptr %13, align 8, !tbaa !42
  store ptr %14, ptr %5, align 8, !tbaa !43
  call void @llvm.lifetime.start.p0(i64 4, ptr %6) #9
  store i32 0, ptr %6, align 4, !tbaa !12
  br label %15

15:                                               ; preds = %31, %1
  %16 = load i32, ptr %6, align 4, !tbaa !12
  %17 = sext i32 %16 to i64
  %18 = icmp ult i64 %17, 20
  br i1 %18, label %19, label %34

19:                                               ; preds = %15
  %20 = load i32, ptr %6, align 4, !tbaa !12
  %21 = sext i32 %20 to i64
  %22 = getelementptr inbounds [20 x %struct.ReplayGainFreqInfo], ptr @freqinfos, i64 0, i64 %21
  %23 = getelementptr inbounds nuw %struct.ReplayGainFreqInfo, ptr %22, i32 0, i32 0
  %24 = load i32, ptr %23, align 8, !tbaa !16
  %25 = load ptr, ptr %2, align 8, !tbaa !20
  %26 = getelementptr inbounds nuw %struct.AVFilterLink, ptr %25, i32 0, i32 11
  %27 = load i32, ptr %26, align 8, !tbaa !55
  %28 = icmp eq i32 %24, %27
  br i1 %28, label %29, label %30

29:                                               ; preds = %19
  br label %34

30:                                               ; preds = %19
  br label %31

31:                                               ; preds = %30
  %32 = load i32, ptr %6, align 4, !tbaa !12
  %33 = add nsw i32 %32, 1
  store i32 %33, ptr %6, align 4, !tbaa !12
  br label %15, !llvm.loop !56

34:                                               ; preds = %29, %15
  br label %35

35:                                               ; preds = %34
  %36 = load i32, ptr %6, align 4, !tbaa !12
  %37 = sext i32 %36 to i64
  %38 = icmp ult i64 %37, 20
  br i1 %38, label %40, label %39

39:                                               ; preds = %35
  call void (ptr, i32, ptr, ...) @av_log(ptr noundef null, i32 noundef 0, ptr noundef @.str.3, ptr noundef @.str.4, ptr noundef @.str.5, i32 noundef 374)
  call void @abort() #11
  unreachable

40:                                               ; preds = %35
  br label %41

41:                                               ; preds = %40
  br label %42

42:                                               ; preds = %41
  %43 = load i32, ptr %6, align 4, !tbaa !12
  %44 = sext i32 %43 to i64
  %45 = getelementptr inbounds [20 x %struct.ReplayGainFreqInfo], ptr @freqinfos, i64 0, i64 %44
  %46 = getelementptr inbounds nuw %struct.ReplayGainFreqInfo, ptr %45, i32 0, i32 2
  %47 = getelementptr inbounds [11 x double], ptr %46, i64 0, i64 0
  %48 = load ptr, ptr %5, align 8, !tbaa !43
  %49 = getelementptr inbounds nuw %struct.ReplayGainContext, ptr %48, i32 0, i32 6
  store ptr %47, ptr %49, align 8, !tbaa !57
  %50 = load i32, ptr %6, align 4, !tbaa !12
  %51 = sext i32 %50 to i64
  %52 = getelementptr inbounds [20 x %struct.ReplayGainFreqInfo], ptr @freqinfos, i64 0, i64 %51
  %53 = getelementptr inbounds nuw %struct.ReplayGainFreqInfo, ptr %52, i32 0, i32 1
  %54 = getelementptr inbounds [11 x double], ptr %53, i64 0, i64 0
  %55 = load ptr, ptr %5, align 8, !tbaa !43
  %56 = getelementptr inbounds nuw %struct.ReplayGainContext, ptr %55, i32 0, i32 7
  store ptr %54, ptr %56, align 8, !tbaa !60
  %57 = load i32, ptr %6, align 4, !tbaa !12
  %58 = sext i32 %57 to i64
  %59 = getelementptr inbounds [20 x %struct.ReplayGainFreqInfo], ptr @freqinfos, i64 0, i64 %58
  %60 = getelementptr inbounds nuw %struct.ReplayGainFreqInfo, ptr %59, i32 0, i32 4
  %61 = getelementptr inbounds [3 x double], ptr %60, i64 0, i64 0
  %62 = load ptr, ptr %5, align 8, !tbaa !43
  %63 = getelementptr inbounds nuw %struct.ReplayGainContext, ptr %62, i32 0, i32 8
  store ptr %61, ptr %63, align 8, !tbaa !61
  %64 = load i32, ptr %6, align 4, !tbaa !12
  %65 = sext i32 %64 to i64
  %66 = getelementptr inbounds [20 x %struct.ReplayGainFreqInfo], ptr @freqinfos, i64 0, i64 %65
  %67 = getelementptr inbounds nuw %struct.ReplayGainFreqInfo, ptr %66, i32 0, i32 3
  %68 = getelementptr inbounds [3 x double], ptr %67, i64 0, i64 0
  %69 = load ptr, ptr %5, align 8, !tbaa !43
  %70 = getelementptr inbounds nuw %struct.ReplayGainContext, ptr %69, i32 0, i32 9
  store ptr %68, ptr %70, align 8, !tbaa !62
  %71 = load ptr, ptr %5, align 8, !tbaa !43
  %72 = getelementptr inbounds nuw %struct.ReplayGainContext, ptr %71, i32 0, i32 4
  store i32 20, ptr %72, align 8, !tbaa !63
  %73 = load ptr, ptr %5, align 8, !tbaa !43
  %74 = getelementptr inbounds nuw %struct.ReplayGainContext, ptr %73, i32 0, i32 5
  store i32 4, ptr %74, align 4, !tbaa !64
  %75 = load ptr, ptr %2, align 8, !tbaa !20
  %76 = getelementptr inbounds nuw %struct.AVFilterLink, ptr %75, i32 0, i32 11
  %77 = load i32, ptr %76, align 8, !tbaa !55
  %78 = sdiv i32 %77, 20
  %79 = load ptr, ptr %3, align 8, !tbaa !53
  %80 = getelementptr inbounds nuw %struct.FilterLink, ptr %79, i32 0, i32 5
  store i32 %78, ptr %80, align 4, !tbaa !65
  %81 = load ptr, ptr %3, align 8, !tbaa !53
  %82 = getelementptr inbounds nuw %struct.FilterLink, ptr %81, i32 0, i32 4
  store i32 %78, ptr %82, align 8, !tbaa !67
  call void @llvm.lifetime.end.p0(i64 4, ptr %6) #9
  call void @llvm.lifetime.end.p0(i64 8, ptr %5) #9
  call void @llvm.lifetime.end.p0(i64 8, ptr %4) #9
  call void @llvm.lifetime.end.p0(i64 8, ptr %3) #9
  ret i32 0
}