; Function Attrs: nounwind uwtable
define internal noundef i32 @config_input(ptr noundef captures(none) %0) #0 {
  %2 = getelementptr inbounds nuw i8, ptr %0, i64 16
  %3 = load ptr, ptr %2, align 8, !tbaa !16
  %4 = getelementptr inbounds nuw i8, ptr %3, i64 72
  %5 = load ptr, ptr %4, align 8, !tbaa !38
  %6 = getelementptr inbounds nuw i8, ptr %0, i64 64
  %7 = load i32, ptr %6, align 8, !tbaa !64
  br label %9

8:                                                ; preds = %9
  %indvars.iv.next = add nuw nsw i64 %indvars.iv, 1
  %exitcond.not = icmp eq i64 %indvars.iv.next, 20
  br i1 %exitcond.not, label %.critedge, label %9, !llvm.loop !65

9:                                                ; preds = %1, %8
  %indvars.iv = phi i64 [ 0, %1 ], [ %indvars.iv.next, %8 ]
  %10 = getelementptr inbounds nuw [20 x %struct.ReplayGainFreqInfo], ptr @freqinfos, i64 0, i64 %indvars.iv
  %11 = load i32, ptr %10, align 8, !tbaa !11
  %12 = icmp eq i32 %11, %7
  br i1 %12, label %13, label %8

.critedge:                                        ; preds = %8
  tail call void (ptr, i32, ptr, ...) @av_log(ptr noundef null, i32 noundef 0, ptr noundef nonnull @.str.3, ptr noundef nonnull @.str.4, ptr noundef nonnull @.str.5, i32 noundef 374) #8
  tail call void @abort() #9
  unreachable

13:                                               ; preds = %9
  %14 = getelementptr inbounds nuw i8, ptr %10, i64 96
  %15 = getelementptr inbounds nuw i8, ptr %5, i64 48024
  store ptr %14, ptr %15, align 8, !tbaa !49
  %16 = getelementptr inbounds nuw i8, ptr %10, i64 8
  %17 = getelementptr inbounds nuw i8, ptr %5, i64 48032
  store ptr %16, ptr %17, align 8, !tbaa !51
  %18 = getelementptr inbounds nuw i8, ptr %10, i64 208
  %19 = getelementptr inbounds nuw i8, ptr %5, i64 48040
  store ptr %18, ptr %19, align 8, !tbaa !57
  %20 = getelementptr inbounds nuw i8, ptr %10, i64 184
  %21 = getelementptr inbounds nuw i8, ptr %5, i64 48048
  store ptr %20, ptr %21, align 8, !tbaa !58
  %22 = getelementptr inbounds nuw i8, ptr %5, i64 48016
  store i32 20, ptr %22, align 8, !tbaa !52
  %23 = getelementptr inbounds nuw i8, ptr %5, i64 48020
  store i32 4, ptr %23, align 4, !tbaa !59
  %24 = sdiv i32 %7, 20
  %25 = getelementptr inbounds nuw i8, ptr %0, i64 228
  store i32 %24, ptr %25, align 4, !tbaa !66
  %26 = getelementptr inbounds nuw i8, ptr %0, i64 224
  store i32 %24, ptr %26, align 8, !tbaa !68
  ret i32 0
}